; Function Attrs: nounwind uwtable
define noalias nonnull ptr @l___private_Lean_Data_KVMap_0__Lean_reprKVMap____x40_Lean_Data_KVMap___hyg_920_(ptr noundef %0, ptr readnone captures(none) %1) local_unnamed_addr #0 {
  %3 = tail call ptr @l_List_repr___at___private_Lean_Data_KVMap_0__Lean_reprKVMap____x40_Lean_Data_KVMap___hyg_920____spec__1(ptr noundef %0, ptr nonnull poison)
  %4 = load ptr, ptr @l___private_Lean_Data_KVMap_0__Lean_reprKVMap____x40_Lean_Data_KVMap___hyg_920____closed__7, align 8, !tbaa !4
  tail call void @lean_inc_heartbeat() #6
  %5 = tail call noalias ptr @mi_malloc_small(i64 noundef 24) #6
  %6 = icmp eq ptr %5, null
  br i1 %6, label %7, label %lean_alloc_ctor.exit

7:                                                ; preds = %2
  tail call void @lean_internal_panic_out_of_memory() #7
  unreachable

lean_alloc_ctor.exit:                             ; preds = %2
  %8 = getelementptr inbounds nuw i8, ptr %5, i64 4
  store i32 1, ptr %5, align 4, !tbaa !8
  store i32 67239960, ptr %8, align 4
  %9 = getelementptr inbounds nuw i8, ptr %5, i64 8
  store ptr %4, ptr %9, align 8, !tbaa !4
  %10 = getelementptr inbounds nuw i8, ptr %5, i64 16
  store ptr %3, ptr %10, align 8, !tbaa !4
  tail call void @lean_inc_heartbeat() #6
  %11 = tail call noalias ptr @mi_malloc_small(i64 noundef 24) #6
  %12 = icmp eq ptr %11, null
  br i1 %12, label %13, label %lean_alloc_ctor.exit30

13:                                               ; preds = %lean_alloc_ctor.exit
  tail call void @lean_internal_panic_out_of_memory() #7
  unreachable

lean_alloc_ctor.exit30:                           ; preds = %lean_alloc_ctor.exit
  %14 = getelementptr inbounds nuw i8, ptr %11, i64 4
  %15 = getelementptr inbounds nuw i8, ptr %11, i64 16
  store i64 0, ptr %15, align 8, !tbaa !12
  store i32 1, ptr %11, align 4, !tbaa !8
  store i32 100728856, ptr %14, align 4
  %16 = getelementptr inbounds nuw i8, ptr %11, i64 8
  store ptr %5, ptr %16, align 8, !tbaa !4
  %17 = load ptr, ptr @l___private_Lean_Data_KVMap_0__Lean_reprKVMap____x40_Lean_Data_KVMap___hyg_920____closed__6, align 8, !tbaa !4
  tail call void @lean_inc_heartbeat() #6
  %18 = tail call noalias ptr @mi_malloc_small(i64 noundef 24) #6
  %19 = icmp eq ptr %18, null
  br i1 %19, label %20, label %lean_alloc_ctor.exit31

20:                                               ; preds = %lean_alloc_ctor.exit30
  tail call void @lean_internal_panic_out_of_memory() #7
  unreachable

lean_alloc_ctor.exit31:                           ; preds = %lean_alloc_ctor.exit30
  %21 = getelementptr inbounds nuw i8, ptr %18, i64 4
  store i32 1, ptr %18, align 4, !tbaa !8
  store i32 84017176, ptr %21, align 4
  %22 = getelementptr inbounds nuw i8, ptr %18, i64 8
  store ptr %17, ptr %22, align 8, !tbaa !4
  %23 = getelementptr inbounds nuw i8, ptr %18, i64 16
  store ptr %11, ptr %23, align 8, !tbaa !4
  %24 = load ptr, ptr @l___private_Lean_Data_KVMap_0__Lean_reprKVMap____x40_Lean_Data_KVMap___hyg_920____closed__11, align 8, !tbaa !4
  tail call void @lean_inc_heartbeat() #6
  %25 = tail call noalias ptr @mi_malloc_small(i64 noundef 24) #6
  %26 = icmp eq ptr %25, null
  br i1 %26, label %27, label %lean_alloc_ctor.exit32

27:                                               ; preds = %lean_alloc_ctor.exit31
  tail call void @lean_internal_panic_out_of_memory() #7
  unreachable

lean_alloc_ctor.exit32:                           ; preds = %lean_alloc_ctor.exit31
  %28 = getelementptr inbounds nuw i8, ptr %25, i64 4
  store i32 1, ptr %25, align 4, !tbaa !8
  store i32 84017176, ptr %28, align 4
  %29 = getelementptr inbounds nuw i8, ptr %25, i64 8
  store ptr %24, ptr %29, align 8, !tbaa !4
  %30 = getelementptr inbounds nuw i8, ptr %25, i64 16
  store ptr %18, ptr %30, align 8, !tbaa !4
  %31 = load ptr, ptr @l___private_Lean_Data_KVMap_0__Lean_reprKVMap____x40_Lean_Data_KVMap___hyg_920____closed__13, align 8, !tbaa !4
  tail call void @lean_inc_heartbeat() #6
  %32 = tail call noalias ptr @mi_malloc_small(i64 noundef 24) #6
  %33 = icmp eq ptr %32, null
  br i1 %33, label %34, label %lean_alloc_ctor.exit33

34:                                               ; preds = %lean_alloc_ctor.exit32
  tail call void @lean_internal_panic_out_of_memory() #7
  unreachable

lean_alloc_ctor.exit33:                           ; preds = %lean_alloc_ctor.exit32
  %35 = getelementptr inbounds nuw i8, ptr %32, i64 4
  store i32 1, ptr %32, align 4, !tbaa !8
  store i32 84017176, ptr %35, align 4
  %36 = getelementptr inbounds nuw i8, ptr %32, i64 8
  store ptr %25, ptr %36, align 8, !tbaa !4
  %37 = getelementptr inbounds nuw i8, ptr %32, i64 16
  store ptr %31, ptr %37, align 8, !tbaa !4
  %38 = load ptr, ptr @l___private_Lean_Data_KVMap_0__Lean_reprKVMap____x40_Lean_Data_KVMap___hyg_920____closed__10, align 8, !tbaa !4
  tail call void @lean_inc_heartbeat() #6
  %39 = tail call noalias ptr @mi_malloc_small(i64 noundef 24) #6
  %40 = icmp eq ptr %39, null
  br i1 %40, label %41, label %lean_alloc_ctor.exit34

41:                                               ; preds = %lean_alloc_ctor.exit33
  tail call void @lean_internal_panic_out_of_memory() #7
  unreachable

lean_alloc_ctor.exit34:                           ; preds = %lean_alloc_ctor.exit33
  %42 = getelementptr inbounds nuw i8, ptr %39, i64 4
  store i32 1, ptr %39, align 4, !tbaa !8
  store i32 67239960, ptr %42, align 4
  %43 = getelementptr inbounds nuw i8, ptr %39, i64 8
  store ptr %38, ptr %43, align 8, !tbaa !4
  %44 = getelementptr inbounds nuw i8, ptr %39, i64 16
  store ptr %32, ptr %44, align 8, !tbaa !4
  tail call void @lean_inc_heartbeat() #6
  %45 = tail call noalias ptr @mi_malloc_small(i64 noundef 24) #6
  %46 = icmp eq ptr %45, null
  br i1 %46, label %47, label %lean_alloc_ctor.exit36

47:                                               ; preds = %lean_alloc_ctor.exit34
  tail call void @lean_internal_panic_out_of_memory() #7
  unreachable

lean_alloc_ctor.exit36:                           ; preds = %lean_alloc_ctor.exit34
  %48 = getelementptr inbounds nuw i8, ptr %45, i64 4
  %49 = getelementptr inbounds nuw i8, ptr %45, i64 16
  store i64 0, ptr %49, align 8, !tbaa !12
  store i32 1, ptr %45, align 4, !tbaa !8
  store i32 100728856, ptr %48, align 4
  %50 = getelementptr inbounds nuw i8, ptr %45, i64 8
  store ptr %39, ptr %50, align 8, !tbaa !4
  ret ptr %45
}